target datalayout = "e-m:e-p270:32:32-p271:32:32-p272:64:64-i64:64-i128:128-f80:128-n8:16:32:64-S128"
target triple = "x86_64-pc-linux-gnu"

%struct.lua_TValue = type { %union.Value, [1 x i32], i32 }
%union.Value = type { ptr }
%struct.lua_State = type { i8, i8, i8, i8, i8, i8, i8, ptr, ptr, ptr, ptr, ptr, ptr, ptr, ptr, i32, i32, i16, i16, i32, ptr, ptr, ptr, ptr, ptr }
%struct.CallInfo = type { ptr, ptr, ptr, ptr, i32, i32 }
%struct.Closure = type { i8, i8, i8, i8, i8, i8, i8, ptr, ptr, %union.anon.1 }
%union.anon.1 = type { %struct.anon }
%struct.anon = type { ptr, ptr, ptr, [1 x %struct.lua_TValue] }
%struct.anon.2 = type { ptr, [1 x %struct.lua_TValue] }
%struct.Proto = type { i8, i8, i8, i8, i8, i8, i8, i8, ptr, ptr, ptr, ptr, ptr, i64, ptr, ptr, ptr, ptr, ptr, ptr, ptr, ptr, ptr, ptr, i32, i32, i32, i32, i32, i32, i32, i32, i32, i32 }

; Function Attrs: mustprogress nounwind uwtable
define dso_local void @_ZN4Luau7CodeGen22executeGETVARARGSConstEP9lua_StateP10lua_TValueii(ptr noundef %0, ptr noundef %1, i32 noundef %2, i32 noundef %3) #0 {
  %5 = alloca ptr, align 8
  %6 = alloca ptr, align 8
  %7 = alloca i32, align 4
  %8 = alloca i32, align 4
  %9 = alloca ptr, align 8
  %10 = alloca i32, align 4
  %11 = alloca ptr, align 8
  %12 = alloca i32, align 4
  %13 = alloca ptr, align 8
  %14 = alloca ptr, align 8
  %15 = alloca i32, align 4
  store ptr %0, ptr %5, align 8
  store ptr %1, ptr %6, align 8
  store i32 %2, ptr %7, align 4
  store i32 %3, ptr %8, align 4
  %16 = load ptr, ptr %5, align 8
  %17 = getelementptr inbounds %struct.lua_State, ptr %16, i32 0, i32 10
  %18 = load ptr, ptr %17, align 8
  %19 = getelementptr inbounds %struct.CallInfo, ptr %18, i32 0, i32 1
  %20 = load ptr, ptr %19, align 8
  %21 = getelementptr inbounds %struct.lua_TValue, ptr %20, i32 0, i32 0
  %22 = load ptr, ptr %21, align 8
  store ptr %22, ptr %9, align 8
  %23 = load ptr, ptr %6, align 8
  %24 = load ptr, ptr %5, align 8
  %25 = getelementptr inbounds %struct.lua_State, ptr %24, i32 0, i32 10
  %26 = load ptr, ptr %25, align 8
  %27 = getelementptr inbounds %struct.CallInfo, ptr %26, i32 0, i32 1
  %28 = load ptr, ptr %27, align 8
  %29 = ptrtoint ptr %23 to i64
  %30 = ptrtoint ptr %28 to i64
  %31 = sub i64 %29, %30
  %32 = sdiv exact i64 %31, 16
  %33 = trunc i64 %32 to i32
  %34 = load ptr, ptr %9, align 8
  %35 = getelementptr inbounds %struct.Closure, ptr %34, i32 0, i32 9
  %36 = getelementptr inbounds %struct.anon.2, ptr %35, i32 0, i32 0
  %37 = load ptr, ptr %36, align 8
  %38 = getelementptr inbounds %struct.Proto, ptr %37, i32 0, i32 4
  %39 = load i8, ptr %38, align 4
  %40 = zext i8 %39 to i32
  %41 = sub nsw i32 %33, %40
  %42 = sub nsw i32 %41, 1
  store i32 %42, ptr %10, align 4
  %43 = load ptr, ptr %6, align 8
  %44 = load i32, ptr %7, align 4
  %45 = sext i32 %44 to i64
  %46 = getelementptr inbounds %struct.lua_TValue, ptr %43, i64 %45
  store ptr %46, ptr %11, align 8
  store i32 0, ptr %12, align 4
  br label %47

47:                                               ; preds = %72, %4
  %48 = load i32, ptr %12, align 4
  %49 = load i32, ptr %8, align 4
  %50 = icmp slt i32 %48, %49
  br i1 %50, label %51, label %55

51:                                               ; preds = %47
  %52 = load i32, ptr %12, align 4
  %53 = load i32, ptr %10, align 4
  %54 = icmp slt i32 %52, %53
  br label %55

55:                                               ; preds = %51, %47
  %56 = phi i1 [ false, %47 ], [ %54, %51 ]
  br i1 %56, label %57, label %75

57:                                               ; preds = %55
  %58 = load ptr, ptr %6, align 8
  %59 = load i32, ptr %10, align 4
  %60 = sext i32 %59 to i64
  %61 = sub i64 0, %60
  %62 = getelementptr inbounds %struct.lua_TValue, ptr %58, i64 %61
  %63 = load i32, ptr %12, align 4
  %64 = sext i32 %63 to i64
  %65 = getelementptr inbounds %struct.lua_TValue, ptr %62, i64 %64
  store ptr %65, ptr %13, align 8
  %66 = load ptr, ptr %11, align 8
  %67 = load i32, ptr %12, align 4
  %68 = sext i32 %67 to i64
  %69 = getelementptr inbounds %struct.lua_TValue, ptr %66, i64 %68
  store ptr %69, ptr %14, align 8
  %70 = load ptr, ptr %13, align 8
  %71 = load ptr, ptr %14, align 8
  call void @llvm.memcpy.p0.p0.i64(ptr align 8 %71, ptr align 8 %70, i64 16, i1 false)
  br label %72

72:                                               ; preds = %57
  %73 = load i32, ptr %12, align 4
  %74 = add nsw i32 %73, 1
  store i32 %74, ptr %12, align 4
  br label %47, !llvm.loop !16

75:                                               ; preds = %55
  %76 = load i32, ptr %10, align 4
  store i32 %76, ptr %15, align 4
  br label %77

77:                                               ; preds = %87, %75
  %78 = load i32, ptr %15, align 4
  %79 = load i32, ptr %8, align 4
  %80 = icmp slt i32 %78, %79
  br i1 %80, label %81, label %90

81:                                               ; preds = %77
  %82 = load ptr, ptr %11, align 8
  %83 = load i32, ptr %15, align 4
  %84 = sext i32 %83 to i64
  %85 = getelementptr inbounds %struct.lua_TValue, ptr %82, i64 %84
  %86 = getelementptr inbounds %struct.lua_TValue, ptr %85, i32 0, i32 2
  store i32 0, ptr %86, align 4
  br label %87

87:                                               ; preds = %81
  %88 = load i32, ptr %15, align 4
  %89 = add nsw i32 %88, 1
  store i32 %89, ptr %15, align 4
  br label %77, !llvm.loop !17

90:                                               ; preds = %77
  ret void
}