; Function Attrs: mustprogress nofree norecurse nosync nounwind memory(read, argmem: readwrite, inaccessiblemem: none) uwtable
define dso_local void @_ZN4Luau7CodeGen22executeGETVARARGSConstEP9lua_StateP10lua_TValueii(ptr nocapture noundef readonly %0, ptr noundef %1, i32 noundef %2, i32 noundef %3) local_unnamed_addr #5 {
  %5 = getelementptr inbounds i8, ptr %0, i64 32
  %6 = load ptr, ptr %5, align 8
  %7 = getelementptr inbounds i8, ptr %6, i64 8
  %8 = load ptr, ptr %7, align 8
  %9 = load ptr, ptr %8, align 8
  %10 = ptrtoint ptr %1 to i64
  %11 = ptrtoint ptr %8 to i64
  %12 = sub i64 %10, %11
  %13 = lshr exact i64 %12, 4
  %14 = trunc i64 %13 to i32
  %15 = getelementptr inbounds i8, ptr %9, i64 24
  %16 = load ptr, ptr %15, align 8
  %17 = getelementptr inbounds i8, ptr %16, i64 4
  %18 = load i8, ptr %17, align 4
  %19 = zext i8 %18 to i32
  %20 = xor i32 %19, -1
  %21 = add i32 %20, %14
  %.fr = freeze i32 %21
  %22 = sext i32 %2 to i64
  %23 = getelementptr %struct.lua_TValue, ptr %1, i64 %22
  %invariant.smin = tail call i32 @llvm.smin.i32(i32 %3, i32 %.fr)
  %24 = icmp sgt i32 %invariant.smin, 0
  br i1 %24, label %.lr.ph, label %.preheader

.lr.ph:                                           ; preds = %4
  %25 = sext i32 %.fr to i64
  %26 = sub nsw i64 0, %25
  %27 = getelementptr inbounds %struct.lua_TValue, ptr %1, i64 %26
  %wide.trip.count = zext nneg i32 %invariant.smin to i64
  br label %30

.preheader:                                       ; preds = %30, %4
  %28 = icmp slt i32 %.fr, %3
  br i1 %28, label %.lr.ph27.preheader, label %._crit_edge

.lr.ph27.preheader:                               ; preds = %.preheader
  %29 = sext i32 %.fr to i64
  %wide.trip.count32 = sext i32 %3 to i64
  br label %.lr.ph27

30:                                               ; preds = %.lr.ph, %30
  %indvars.iv = phi i64 [ 0, %.lr.ph ], [ %indvars.iv.next, %30 ]
  %31 = getelementptr inbounds %struct.lua_TValue, ptr %27, i64 %indvars.iv
  %32 = getelementptr inbounds %struct.lua_TValue, ptr %23, i64 %indvars.iv
  tail call void @llvm.memcpy.p0.p0.i64(ptr noundef nonnull align 8 dereferenceable(16) %32, ptr noundef nonnull align 8 dereferenceable(16) %31, i64 16, i1 false)
  %indvars.iv.next = add nuw nsw i64 %indvars.iv, 1
  %exitcond.not = icmp eq i64 %indvars.iv.next, %wide.trip.count
  br i1 %exitcond.not, label %.preheader, label %30, !llvm.loop !16

.lr.ph27:                                         ; preds = %.lr.ph27.preheader, %.lr.ph27
  %indvars.iv29 = phi i64 [ %29, %.lr.ph27.preheader ], [ %indvars.iv.next30, %.lr.ph27 ]
  %33 = getelementptr inbounds %struct.lua_TValue, ptr %23, i64 %indvars.iv29, i32 2
  store i32 0, ptr %33, align 4
  %indvars.iv.next30 = add nsw i64 %indvars.iv29, 1
  %exitcond33.not = icmp eq i64 %indvars.iv.next30, %wide.trip.count32
  br i1 %exitcond33.not, label %._crit_edge, label %.lr.ph27, !llvm.loop !17

._crit_edge:                                      ; preds = %.lr.ph27, %.preheader
  ret void
}